target datalayout = "e-m:e-p270:32:32-p271:32:32-p272:64:64-i64:64-i128:128-f80:128-n8:16:32:64-S128"
target triple = "x86_64-pc-linux-gnu"

%class.rational = type { %class.mpq }
%class.mpq = type { %class.mpz, %class.mpz }
%class.mpz = type { i32, i8, ptr }
%"struct.smt::theory_pb::arg_t" = type { %class.vector, %class.rational }
%class.vector = type { ptr }
%"class.smt::pb_lit_rewriter_util" = type { i8 }
%class.pb_rewriter_util = type { ptr }

; Function Attrs: mustprogress nounwind uwtable
define linkonce_odr hidden void @_ZN16pb_rewriter_utilIN3smt20pb_lit_rewriter_utilEEC2ERS1_(ptr noundef nonnull align 8 dereferenceable(8) %0, ptr noundef nonnull align 1 dereferenceable(1) %1) unnamed_addr #4 comdat align 2 {
  %3 = alloca ptr, align 8
  %4 = alloca ptr, align 8
  store ptr %0, ptr %3, align 8, !tbaa !49
  store ptr %1, ptr %4, align 8, !tbaa !51
  %5 = load ptr, ptr %3, align 8
  %6 = getelementptr inbounds nuw %class.pb_rewriter_util, ptr %5, i32 0, i32 0
  %7 = load ptr, ptr %4, align 8, !tbaa !51
  store ptr %7, ptr %6, align 8, !tbaa !51
  ret void
}

; Function Attrs: mustprogress uwtable
define hidden noundef i32 @_ZN3smt9theory_pb5arg_t9normalizeEb(ptr noundef nonnull align 8 dereferenceable(40) %0, i1 noundef zeroext %1) #6 align 2 {
  %3 = alloca ptr, align 8
  %4 = alloca i8, align 1
  %5 = alloca %"class.smt::pb_lit_rewriter_util", align 1
  %6 = alloca %class.pb_rewriter_util, align 8
  store ptr %0, ptr %3, align 8, !tbaa !28
  %7 = zext i1 %1 to i8
  store i8 %7, ptr %4, align 1, !tbaa !10
  %8 = load ptr, ptr %3, align 8
  call void @llvm.lifetime.start.p0(i64 1, ptr %5) #3
  call void @llvm.lifetime.start.p0(i64 8, ptr %6) #3
  call void @_ZN16pb_rewriter_utilIN3smt20pb_lit_rewriter_utilEEC2ERS1_(ptr noundef nonnull align 8 dereferenceable(8) %6, ptr noundef nonnull align 1 dereferenceable(1) %5)
  %9 = getelementptr inbounds nuw %"struct.smt::theory_pb::arg_t", ptr %8, i32 0, i32 1
  %10 = load i8, ptr %4, align 1, !tbaa !10, !range !12, !noundef !13
  %11 = trunc i8 %10 to i1
  %12 = call noundef i32 @_ZN16pb_rewriter_utilIN3smt20pb_lit_rewriter_utilEE9normalizeER6vectorISt4pairIN3sat7literalE8rationalELb1EjERS7_b(ptr noundef nonnull align 8 dereferenceable(8) %6, ptr noundef nonnull align 8 dereferenceable(8) %8, ptr noundef nonnull align 8 dereferenceable(32) %9, i1 noundef zeroext %11)
  call void @llvm.lifetime.end.p0(i64 8, ptr %6) #3
  call void @llvm.lifetime.end.p0(i64 1, ptr %5) #3
  ret i32 %12
}