; Function Attrs: mustprogress uwtable
define hidden noundef i32 @_ZN3smt9theory_pb5arg_t9normalizeEb(ptr noundef nonnull align 8 dereferenceable(40) %0, i1 noundef zeroext %1) local_unnamed_addr #4 align 2 {
  %3 = alloca %"class.smt::pb_lit_rewriter_util", align 1
  %4 = alloca %class.pb_rewriter_util, align 8
  call void @llvm.lifetime.start.p0(i64 1, ptr nonnull %3) #30
  call void @llvm.lifetime.start.p0(i64 8, ptr nonnull %4) #30
  store ptr %3, ptr %4, align 8, !tbaa !26
  %5 = getelementptr inbounds nuw i8, ptr %0, i64 8
  %6 = call noundef i32 @_ZN16pb_rewriter_utilIN3smt20pb_lit_rewriter_utilEE9normalizeER6vectorISt4pairIN3sat7literalE8rationalELb1EjERS7_b(ptr noundef nonnull align 8 dereferenceable(8) %4, ptr noundef nonnull align 8 dereferenceable(8) %0, ptr noundef nonnull align 8 dereferenceable(32) %5, i1 noundef zeroext %1)
  call void @llvm.lifetime.end.p0(i64 8, ptr nonnull %4) #30
  call void @llvm.lifetime.end.p0(i64 1, ptr nonnull %3) #30
  ret i32 %6
}